; Function Attrs: mustprogress uwtable
define void @_ZN3gmx26AnalysisDataLifetimeModuleC2Ev(ptr noundef nonnull align 8 dereferenceable(112) %0) unnamed_addr #3 align 2 personality ptr @__gxx_personality_v0 {
  tail call void @_ZN3gmx25AbstractAnalysisArrayDataC2Ev(ptr noundef nonnull align 8 dereferenceable(94) %0)
  %2 = getelementptr inbounds i8, ptr %0, i64 96
  store ptr getelementptr inbounds inrange(-16, 88) ({ [13 x ptr], [12 x ptr] }, ptr @_ZTVN3gmx26AnalysisDataLifetimeModuleE, i64 0, i32 0, i64 2), ptr %0, align 8
  store ptr getelementptr inbounds inrange(-16, 80) ({ [13 x ptr], [12 x ptr] }, ptr @_ZTVN3gmx26AnalysisDataLifetimeModuleE, i64 0, i32 1, i64 2), ptr %2, align 8
  %3 = invoke noalias noundef nonnull dereferenceable(64) ptr @_Znwm(i64 noundef 64) #21
          to label %4 unwind label %7

4:                                                ; preds = %1
  %5 = getelementptr inbounds i8, ptr %0, i64 104
  %6 = getelementptr inbounds i8, ptr %3, i64 16
  tail call void @llvm.memset.p0.i64(ptr noundef nonnull align 8 dereferenceable(13) %3, i8 0, i64 13, i1 false)
  tail call void @llvm.memset.p0.i64(ptr noundef nonnull align 8 dereferenceable(48) %6, i8 0, i64 48, i1 false)
  store ptr %3, ptr %5, align 8
  ret void

7:                                                ; preds = %1
  %8 = landingpad { ptr, i32 }
          cleanup
  tail call void @_ZN3gmx25AbstractAnalysisArrayDataD2Ev(ptr noundef nonnull align 8 dereferenceable(94) %0) #18
  resume { ptr, i32 } %8
}